target datalayout = "e-m:e-p270:32:32-p271:32:32-p272:64:64-i64:64-i128:128-f80:128-n8:16:32:64-S128"
target triple = "x86_64-pc-linux-gnu"

%struct.redisServer = type { i32, i64, ptr, ptr, ptr, i32, i32, i32, i32, i32, ptr, ptr, ptr, ptr, ptr, i32, i32, i32, i32, i64, i32, i32, i32, i32, ptr, i32, i32, [41 x i8], i32, i64, i32, i32, i32, ptr, ptr, i32, i32, i64, ptr, ptr, ptr, ptr, [2 x i32], i32, i32, i32, i32, i32, i32, [16 x ptr], i32, ptr, ptr, i32, [8 x %struct.connListener], i32, %struct.connListener, ptr, ptr, ptr, ptr, ptr, ptr, ptr, ptr, ptr, ptr, i32, ptr, i32, ptr, [3 x %struct.pause_event], [256 x i8], ptr, i64, i32, i32, [128 x i32], i32, i32, i64, i32, i32, i32, i32, i32, i64, i64, i64, i64, i64, i64, i64, i64, i64, i64, double, i64, i64, i64, i64, i64, i64, i64, i64, i64, i64, i64, i64, i64, i64, i64, i64, i64, i64, i64, i64, i64, double, i64, i64, i64, i64, i64, ptr, i64, i64, i64, %struct.malloc_stats, i64, i64, i64, i64, i64, i64, i64, i64, i64, i64, i64, i64, double, [4 x i64], i64, i64, i64, i64, [128 x i64], [128 x i64], i64, i64, [7 x %struct.anon], i64, i64, i64, i64, i64, i64, [4 x %struct.durationStats], i32, i32, i32, i32, i32, i32, i32, i32, i32, i32, i32, i32, i64, i32, i32, i32, i32, i64, i64, i32, i32, i32, i32, i32, ptr, [3 x %struct.clientBufferLimitsConfig], i32, i32, i32, ptr, i32, i32, i32, i32, i32, i32, ptr, ptr, i32, i32, i64, i64, i64, i64, i64, i32, i32, ptr, i32, i32, i64, i64, i64, i64, i64, i32, i32, i64, i32, i32, i32, i32, i32, i32, i32, i32, ptr, i32, i64, i64, i64, i64, i32, ptr, i32, ptr, i32, i32, i32, i64, i64, i64, i64, i32, i32, i32, i32, i32, i32, ptr, i32, i32, ptr, i32, i32, i32, [2 x i32], i32, %struct.redisOpArray, i32, ptr, i32, ptr, i32, i32, i32, i32, i32, i32, i32, [41 x i8], [41 x i8], i64, i64, i64, i64, i32, i32, ptr, i64, i64, %struct.replDataBuf, i64, i64, i32, i32, i32, i32, i32, i32, i32, i32, i32, i64, ptr, i64, ptr, ptr, ptr, i32, i32, ptr, ptr, i32, i32, i32, i64, i64, i64, i64, ptr, ptr, i32, ptr, i64, i32, i32, i32, i64, i32, i32, i32, i32, ptr, i32, i32, [41 x i8], i64, i32, ptr, i32, i32, i64, i64, i32, i32, i32, i32, i32, i64, [3 x i32], i32, i32, i32, [10 x i32], ptr, ptr, i32, i64, ptr, ptr, i32, i32, i32, i32, i64, i64, i64, i64, i64, i64, i64, i64, i64, i64, i32, i32, i64, i64, i32, i64, i64, i64, i64, i64, ptr, ptr, i32, ptr, i32, i32, i32, i32, i64, i64, ptr, ptr, i32, i32, i32, i32, i32, ptr, ptr, ptr, i32, i32, i32, i32, i32, i32, i32, i64, i32, i32, i64, i32, i32, i32, i32, i32, i32, i32, i64, ptr, ptr, i64, ptr, i32, %struct.aclInfo, i32, i64, i32, i32, i32, %struct.redisTLSContextConfig, ptr, ptr, ptr, ptr, ptr, i64, i32, ptr, i32, i32, i32, i64, i32, ptr }
%struct.connListener = type { [16 x i32], i32, ptr, i32, i32, ptr, ptr }
%struct.pause_event = type { i32, i64 }
%struct.malloc_stats = type { i64, i64, i64, i64, i64, i64, i64, i64, i64, i64, i64 }
%struct.anon = type { i64, i64, [16 x i64], i32 }
%struct.durationStats = type { i64, i64, i64 }
%struct.clientBufferLimitsConfig = type { i64, i64, i64 }
%struct.redisOpArray = type { ptr, i32, i32 }
%struct.replDataBuf = type { ptr, i64, i64, i64, i64 }
%struct.aclInfo = type { i64, i64, i64, i64 }
%struct.redisTLSContextConfig = type { ptr, ptr, ptr, ptr, ptr, ptr, ptr, ptr, ptr, ptr, ptr, ptr, i32, i32, i32, i32 }
%struct.sdshdr8 = type { i8, i8, i8, [0 x i8] }
%struct.sdshdr16 = type <{ i16, i16, i8, [0 x i8] }>
%struct.sdshdr32 = type <{ i32, i32, i8, [0 x i8] }>
%struct.sdshdr64 = type <{ i64, i64, i8, [0 x i8] }>

@.str.11 = private unnamed_addr constant [5 x i8] c"%s%s\00", align 1
@server = external global %struct.redisServer, align 8
@.str.12 = private unnamed_addr constant [10 x i8] c".manifest\00", align 1
@.str.13 = private unnamed_addr constant [7 x i8] c"%s%s%s\00", align 1
@.str.14 = private unnamed_addr constant [6 x i8] c"temp-\00", align 1
@.str.43 = private unnamed_addr constant [40 x i8] c"Can't open the AOF manifest file %s: %s\00", align 1
@.str.44 = private unnamed_addr constant [61 x i8] c"Error trying to write the temporary AOF manifest file %s: %s\00", align 1
@.str.45 = private unnamed_addr constant [40 x i8] c"Fail to fsync the temp AOF file %s: %s.\00", align 1
@.str.46 = private unnamed_addr constant [70 x i8] c"Error trying to rename the temporary AOF manifest file %s into %s: %s\00", align 1
@.str.47 = private unnamed_addr constant [36 x i8] c"Fail to fsync AOF directory %s: %s.\00", align 1

; Function Attrs: inlinehint nounwind uwtable
define internal i64 @sdslen(ptr noundef %0) #6 {
  %2 = alloca i64, align 8
  %3 = alloca ptr, align 8
  %4 = alloca i8, align 1
  %5 = alloca i32, align 4
  store ptr %0, ptr %3, align 8, !tbaa !18
  call void @llvm.lifetime.start.p0(i64 1, ptr %4) #12
  %6 = load ptr, ptr %3, align 8, !tbaa !18
  %7 = getelementptr inbounds i8, ptr %6, i64 -1
  %8 = load i8, ptr %7, align 1, !tbaa !19
  store i8 %8, ptr %4, align 1, !tbaa !19
  %9 = load i8, ptr %4, align 1, !tbaa !19
  %10 = zext i8 %9 to i32
  %11 = and i32 %10, 7
  switch i32 %11, label %40 [
    i32 0, label %12
    i32 1, label %17
    i32 2, label %23
    i32 3, label %29
    i32 4, label %35
  ]

12:                                               ; preds = %1
  %13 = load i8, ptr %4, align 1, !tbaa !19
  %14 = zext i8 %13 to i32
  %15 = ashr i32 %14, 3
  %16 = sext i32 %15 to i64
  store i64 %16, ptr %2, align 8
  store i32 1, ptr %5, align 4
  br label %41

17:                                               ; preds = %1
  %18 = load ptr, ptr %3, align 8, !tbaa !18
  %19 = getelementptr inbounds i8, ptr %18, i64 -3
  %20 = getelementptr inbounds nuw %struct.sdshdr8, ptr %19, i32 0, i32 0
  %21 = load i8, ptr %20, align 1, !tbaa !19
  %22 = zext i8 %21 to i64
  store i64 %22, ptr %2, align 8
  store i32 1, ptr %5, align 4
  br label %41

23:                                               ; preds = %1
  %24 = load ptr, ptr %3, align 8, !tbaa !18
  %25 = getelementptr inbounds i8, ptr %24, i64 -5
  %26 = getelementptr inbounds nuw %struct.sdshdr16, ptr %25, i32 0, i32 0
  %27 = load i16, ptr %26, align 1, !tbaa !20
  %28 = zext i16 %27 to i64
  store i64 %28, ptr %2, align 8
  store i32 1, ptr %5, align 4
  br label %41

29:                                               ; preds = %1
  %30 = load ptr, ptr %3, align 8, !tbaa !18
  %31 = getelementptr inbounds i8, ptr %30, i64 -9
  %32 = getelementptr inbounds nuw %struct.sdshdr32, ptr %31, i32 0, i32 0
  %33 = load i32, ptr %32, align 1, !tbaa !22
  %34 = zext i32 %33 to i64
  store i64 %34, ptr %2, align 8
  store i32 1, ptr %5, align 4
  br label %41

35:                                               ; preds = %1
  %36 = load ptr, ptr %3, align 8, !tbaa !18
  %37 = getelementptr inbounds i8, ptr %36, i64 -17
  %38 = getelementptr inbounds nuw %struct.sdshdr64, ptr %37, i32 0, i32 0
  %39 = load i64, ptr %38, align 1, !tbaa !23
  store i64 %39, ptr %2, align 8
  store i32 1, ptr %5, align 4
  br label %41

40:                                               ; preds = %1
  store i64 0, ptr %2, align 8
  store i32 1, ptr %5, align 4
  br label %41

41:                                               ; preds = %40, %35, %29, %23, %17, %12
  call void @llvm.lifetime.end.p0(i64 1, ptr %4) #12
  %42 = load i64, ptr %2, align 8
  ret i64 %42
}

; Function Attrs: nounwind uwtable
define dso_local ptr @getTempAofManifestFileName() #0 {
  %1 = call ptr @sdsempty()
  %2 = load ptr, ptr getelementptr inbounds nuw (%struct.redisServer, ptr @server, i32 0, i32 195), align 8, !tbaa !34
  %3 = call ptr (ptr, ptr, ...) @sdscatprintf(ptr noundef %1, ptr noundef @.str.13, ptr noundef @.str.14, ptr noundef %2, ptr noundef @.str.12)
  ret ptr %3
}

; Function Attrs: nounwind uwtable
define dso_local ptr @getAofManifestFileName() #0 {
  %1 = call ptr @sdsempty()
  %2 = load ptr, ptr getelementptr inbounds nuw (%struct.redisServer, ptr @server, i32 0, i32 195), align 8, !tbaa !34
  %3 = call ptr (ptr, ptr, ...) @sdscatprintf(ptr noundef %1, ptr noundef @.str.11, ptr noundef %2, ptr noundef @.str.12)
  ret ptr %3
}

; Function Attrs: nounwind uwtable
define dso_local i32 @writeAofManifestFile(ptr noundef %0) #0 {
  %2 = alloca ptr, align 8
  %3 = alloca i32, align 4
  %4 = alloca i64, align 8
  %5 = alloca i32, align 4
  %6 = alloca ptr, align 8
  %7 = alloca ptr, align 8
  %8 = alloca ptr, align 8
  %9 = alloca ptr, align 8
  %10 = alloca i32, align 4
  store ptr %0, ptr %2, align 8, !tbaa !18
  call void @llvm.lifetime.start.p0(i64 4, ptr %3) #12
  store i32 0, ptr %3, align 4, !tbaa !22
  call void @llvm.lifetime.start.p0(i64 8, ptr %4) #12
  call void @llvm.lifetime.start.p0(i64 4, ptr %5) #12
  call void @llvm.lifetime.start.p0(i64 8, ptr %6) #12
  %11 = call ptr @getAofManifestFileName()
  store ptr %11, ptr %6, align 8, !tbaa !18
  call void @llvm.lifetime.start.p0(i64 8, ptr %7) #12
  %12 = load ptr, ptr getelementptr inbounds nuw (%struct.redisServer, ptr @server, i32 0, i32 196), align 8, !tbaa !66
  %13 = load ptr, ptr %6, align 8, !tbaa !18
  %14 = call ptr @makePath(ptr noundef %12, ptr noundef %13)
  store ptr %14, ptr %7, align 8, !tbaa !18
  call void @llvm.lifetime.start.p0(i64 8, ptr %8) #12
  %15 = call ptr @getTempAofManifestFileName()
  store ptr %15, ptr %8, align 8, !tbaa !18
  call void @llvm.lifetime.start.p0(i64 8, ptr %9) #12
  %16 = load ptr, ptr getelementptr inbounds nuw (%struct.redisServer, ptr @server, i32 0, i32 196), align 8, !tbaa !66
  %17 = load ptr, ptr %8, align 8, !tbaa !18
  %18 = call ptr @makePath(ptr noundef %16, ptr noundef %17)
  store ptr %18, ptr %9, align 8, !tbaa !18
  call void @llvm.lifetime.start.p0(i64 4, ptr %10) #12
  %19 = load ptr, ptr %9, align 8, !tbaa !18
  %20 = call i32 (ptr, i32, ...) @open64(ptr noundef %19, i32 noundef 577, i32 noundef 420)
  store i32 %20, ptr %10, align 4, !tbaa !22
  %21 = load i32, ptr %10, align 4, !tbaa !22
  %22 = icmp eq i32 %21, -1
  br i1 %22, label %23, label %35

23:                                               ; preds = %1
  br label %24

24:                                               ; preds = %23
  %25 = load i32, ptr getelementptr inbounds nuw (%struct.redisServer, ptr @server, i32 0, i32 159), align 8, !tbaa !67
  %26 = icmp slt i32 3, %25
  br i1 %26, label %27, label %28

27:                                               ; preds = %24
  br label %34

28:                                               ; preds = %24
  %29 = load ptr, ptr %8, align 8, !tbaa !18
  %30 = call ptr @__errno_location() #15
  %31 = load i32, ptr %30, align 4, !tbaa !22
  %32 = call ptr @strerror(i32 noundef %31) #12
  call void (i32, ptr, ...) @_serverLog(i32 noundef 3, ptr noundef @.str.43, ptr noundef %29, ptr noundef %32)
  br label %33

33:                                               ; preds = %28
  br label %34

34:                                               ; preds = %33, %27
  store i32 -1, ptr %3, align 4, !tbaa !22
  br label %127

35:                                               ; preds = %1
  %36 = load ptr, ptr %2, align 8, !tbaa !18
  %37 = call i64 @sdslen(ptr noundef %36)
  %38 = trunc i64 %37 to i32
  store i32 %38, ptr %5, align 4, !tbaa !22
  br label %39

39:                                               ; preds = %67, %54, %35
  %40 = load i32, ptr %5, align 4, !tbaa !22
  %41 = icmp ne i32 %40, 0
  br i1 %41, label %42, label %76

42:                                               ; preds = %39
  %43 = load i32, ptr %10, align 4, !tbaa !22
  %44 = load ptr, ptr %2, align 8, !tbaa !18
  %45 = load i32, ptr %5, align 4, !tbaa !22
  %46 = sext i32 %45 to i64
  %47 = call i64 @write(i32 noundef %43, ptr noundef %44, i64 noundef %46)
  store i64 %47, ptr %4, align 8, !tbaa !23
  %48 = load i64, ptr %4, align 8, !tbaa !23
  %49 = icmp slt i64 %48, 0
  br i1 %49, label %50, label %67

50:                                               ; preds = %42
  %51 = call ptr @__errno_location() #15
  %52 = load i32, ptr %51, align 4, !tbaa !22
  %53 = icmp eq i32 %52, 4
  br i1 %53, label %54, label %55

54:                                               ; preds = %50
  br label %39, !llvm.loop !81

55:                                               ; preds = %50
  br label %56

56:                                               ; preds = %55
  %57 = load i32, ptr getelementptr inbounds nuw (%struct.redisServer, ptr @server, i32 0, i32 159), align 8, !tbaa !67
  %58 = icmp slt i32 3, %57
  br i1 %58, label %59, label %60

59:                                               ; preds = %56
  br label %66

60:                                               ; preds = %56
  %61 = load ptr, ptr %8, align 8, !tbaa !18
  %62 = call ptr @__errno_location() #15
  %63 = load i32, ptr %62, align 4, !tbaa !22
  %64 = call ptr @strerror(i32 noundef %63) #12
  call void (i32, ptr, ...) @_serverLog(i32 noundef 3, ptr noundef @.str.44, ptr noundef %61, ptr noundef %64)
  br label %65

65:                                               ; preds = %60
  br label %66

66:                                               ; preds = %65, %59
  store i32 -1, ptr %3, align 4, !tbaa !22
  br label %127

67:                                               ; preds = %42
  %68 = load i64, ptr %4, align 8, !tbaa !23
  %69 = load i32, ptr %5, align 4, !tbaa !22
  %70 = sext i32 %69 to i64
  %71 = sub nsw i64 %70, %68
  %72 = trunc i64 %71 to i32
  store i32 %72, ptr %5, align 4, !tbaa !22
  %73 = load i64, ptr %4, align 8, !tbaa !23
  %74 = load ptr, ptr %2, align 8, !tbaa !18
  %75 = getelementptr inbounds i8, ptr %74, i64 %73
  store ptr %75, ptr %2, align 8, !tbaa !18
  br label %39, !llvm.loop !81

76:                                               ; preds = %39
  %77 = load i32, ptr %10, align 4, !tbaa !22
  %78 = call i32 @fdatasync(i32 noundef %77)
  %79 = icmp eq i32 %78, -1
  br i1 %79, label %80, label %92

80:                                               ; preds = %76
  br label %81

81:                                               ; preds = %80
  %82 = load i32, ptr getelementptr inbounds nuw (%struct.redisServer, ptr @server, i32 0, i32 159), align 8, !tbaa !67
  %83 = icmp slt i32 3, %82
  br i1 %83, label %84, label %85

84:                                               ; preds = %81
  br label %91

85:                                               ; preds = %81
  %86 = load ptr, ptr %8, align 8, !tbaa !18
  %87 = call ptr @__errno_location() #15
  %88 = load i32, ptr %87, align 4, !tbaa !22
  %89 = call ptr @strerror(i32 noundef %88) #12
  call void (i32, ptr, ...) @_serverLog(i32 noundef 3, ptr noundef @.str.45, ptr noundef %86, ptr noundef %89)
  br label %90

90:                                               ; preds = %85
  br label %91

91:                                               ; preds = %90, %84
  store i32 -1, ptr %3, align 4, !tbaa !22
  br label %127

92:                                               ; preds = %76
  %93 = load ptr, ptr %9, align 8, !tbaa !18
  %94 = load ptr, ptr %7, align 8, !tbaa !18
  %95 = call i32 @rename(ptr noundef %93, ptr noundef %94) #12
  %96 = icmp ne i32 %95, 0
  br i1 %96, label %97, label %110

97:                                               ; preds = %92
  br label %98

98:                                               ; preds = %97
  %99 = load i32, ptr getelementptr inbounds nuw (%struct.redisServer, ptr @server, i32 0, i32 159), align 8, !tbaa !67
  %100 = icmp slt i32 3, %99
  br i1 %100, label %101, label %102

101:                                              ; preds = %98
  br label %109

102:                                              ; preds = %98
  %103 = load ptr, ptr %8, align 8, !tbaa !18
  %104 = load ptr, ptr %6, align 8, !tbaa !18
  %105 = call ptr @__errno_location() #15
  %106 = load i32, ptr %105, align 4, !tbaa !22
  %107 = call ptr @strerror(i32 noundef %106) #12
  call void (i32, ptr, ...) @_serverLog(i32 noundef 3, ptr noundef @.str.46, ptr noundef %103, ptr noundef %104, ptr noundef %107)
  br label %108

108:                                              ; preds = %102
  br label %109

109:                                              ; preds = %108, %101
  store i32 -1, ptr %3, align 4, !tbaa !22
  br label %127

110:                                              ; preds = %92
  %111 = load ptr, ptr %7, align 8, !tbaa !18
  %112 = call i32 @fsyncFileDir(ptr noundef %111)
  %113 = icmp eq i32 %112, -1
  br i1 %113, label %114, label %126

114:                                              ; preds = %110
  br label %115

115:                                              ; preds = %114
  %116 = load i32, ptr getelementptr inbounds nuw (%struct.redisServer, ptr @server, i32 0, i32 159), align 8, !tbaa !67
  %117 = icmp slt i32 3, %116
  br i1 %117, label %118, label %119

118:                                              ; preds = %115
  br label %125

119:                                              ; preds = %115
  %120 = load ptr, ptr %7, align 8, !tbaa !18
  %121 = call ptr @__errno_location() #15
  %122 = load i32, ptr %121, align 4, !tbaa !22
  %123 = call ptr @strerror(i32 noundef %122) #12
  call void (i32, ptr, ...) @_serverLog(i32 noundef 3, ptr noundef @.str.47, ptr noundef %120, ptr noundef %123)
  br label %124

124:                                              ; preds = %119
  br label %125

125:                                              ; preds = %124, %118
  store i32 -1, ptr %3, align 4, !tbaa !22
  br label %127

126:                                              ; preds = %110
  br label %127

127:                                              ; preds = %126, %125, %109, %91, %66, %34
  %128 = load i32, ptr %10, align 4, !tbaa !22
  %129 = icmp ne i32 %128, -1
  br i1 %129, label %130, label %133

130:                                              ; preds = %127
  %131 = load i32, ptr %10, align 4, !tbaa !22
  %132 = call i32 @close(i32 noundef %131)
  br label %133

133:                                              ; preds = %130, %127
  %134 = load ptr, ptr %6, align 8, !tbaa !18
  call void @sdsfree(ptr noundef %134)
  %135 = load ptr, ptr %7, align 8, !tbaa !18
  call void @sdsfree(ptr noundef %135)
  %136 = load ptr, ptr %8, align 8, !tbaa !18
  call void @sdsfree(ptr noundef %136)
  %137 = load ptr, ptr %9, align 8, !tbaa !18
  call void @sdsfree(ptr noundef %137)
  %138 = load i32, ptr %3, align 4, !tbaa !22
  call void @llvm.lifetime.end.p0(i64 4, ptr %10) #12
  call void @llvm.lifetime.end.p0(i64 8, ptr %9) #12
  call void @llvm.lifetime.end.p0(i64 8, ptr %8) #12
  call void @llvm.lifetime.end.p0(i64 8, ptr %7) #12
  call void @llvm.lifetime.end.p0(i64 8, ptr %6) #12
  call void @llvm.lifetime.end.p0(i64 4, ptr %5) #12
  call void @llvm.lifetime.end.p0(i64 8, ptr %4) #12
  call void @llvm.lifetime.end.p0(i64 4, ptr %3) #12
  ret i32 %138
}