; Function Attrs: nounwind uwtable
define dso_local range(i32 -1, 1) i32 @writeAofManifestFile(ptr noundef readonly captures(none) %0) local_unnamed_addr #0 {
  %2 = tail call ptr @sdsempty() #20
  %3 = load ptr, ptr getelementptr inbounds nuw (i8, ptr @server, i64 6528), align 8, !tbaa !33
  %4 = tail call ptr (ptr, ptr, ...) @sdscatprintf(ptr noundef %2, ptr noundef nonnull @.str.11, ptr noundef %3, ptr noundef nonnull @.str.12) #20
  %5 = load ptr, ptr getelementptr inbounds nuw (i8, ptr @server, i64 6536), align 8, !tbaa !64
  %6 = tail call ptr @makePath(ptr noundef %5, ptr noundef %4) #20
  %7 = tail call ptr @sdsempty() #20
  %8 = load ptr, ptr getelementptr inbounds nuw (i8, ptr @server, i64 6528), align 8, !tbaa !33
  %9 = tail call ptr (ptr, ptr, ...) @sdscatprintf(ptr noundef %7, ptr noundef nonnull @.str.13, ptr noundef nonnull @.str.14, ptr noundef %8, ptr noundef nonnull @.str.12) #20
  %10 = load ptr, ptr getelementptr inbounds nuw (i8, ptr @server, i64 6536), align 8, !tbaa !64
  %11 = tail call ptr @makePath(ptr noundef %10, ptr noundef %9) #20
  %12 = tail call i32 (ptr, i32, ...) @open64(ptr noundef %11, i32 noundef 577, i32 noundef 420) #20
  %13 = icmp eq i32 %12, -1
  br i1 %13, label %14, label %21

14:                                               ; preds = %1
  %15 = load i32, ptr getelementptr inbounds nuw (i8, ptr @server, i64 6288), align 8, !tbaa !65
  %16 = icmp sgt i32 %15, 3
  br i1 %16, label %.thread, label %17

17:                                               ; preds = %14
  %18 = tail call ptr @__errno_location() #22
  %19 = load i32, ptr %18, align 4, !tbaa !21
  %20 = tail call ptr @strerror(i32 noundef %19) #20
  tail call void (i32, ptr, ...) @_serverLog(i32 noundef 3, ptr noundef nonnull @.str.43, ptr noundef %9, ptr noundef %20) #20
  br label %.thread

21:                                               ; preds = %1
  %22 = getelementptr inbounds i8, ptr %0, i64 -1
  %23 = load i8, ptr %22, align 1, !tbaa !18
  %24 = zext i8 %23 to i32
  %25 = and i32 %24, 7
  switch i32 %25, label %.outer._crit_edge [
    i32 0, label %26
    i32 1, label %29
    i32 2, label %33
    i32 3, label %37
    i32 4, label %41
  ]

26:                                               ; preds = %21
  %27 = lshr i32 %24, 3
  %28 = zext nneg i32 %27 to i64
  br label %sdslen.exit

29:                                               ; preds = %21
  %30 = getelementptr inbounds i8, ptr %0, i64 -3
  %31 = load i8, ptr %30, align 1, !tbaa !18
  %32 = zext i8 %31 to i64
  br label %sdslen.exit

33:                                               ; preds = %21
  %34 = getelementptr inbounds i8, ptr %0, i64 -5
  %35 = load i16, ptr %34, align 1, !tbaa !19
  %36 = zext i16 %35 to i64
  br label %sdslen.exit

37:                                               ; preds = %21
  %38 = getelementptr inbounds i8, ptr %0, i64 -9
  %39 = load i32, ptr %38, align 1, !tbaa !21
  %40 = zext i32 %39 to i64
  br label %sdslen.exit

41:                                               ; preds = %21
  %42 = getelementptr inbounds i8, ptr %0, i64 -17
  %43 = load i64, ptr %42, align 1, !tbaa !22
  br label %sdslen.exit

sdslen.exit:                                      ; preds = %26, %29, %33, %37, %41
  %.0.i = phi i64 [ %43, %41 ], [ %40, %37 ], [ %36, %33 ], [ %32, %29 ], [ %28, %26 ]
  %44 = trunc i64 %.0.i to i32
  %.not41 = icmp eq i32 %44, 0
  br i1 %.not41, label %.outer._crit_edge, label %.outer.split.preheader

.outer.split.preheader:                           ; preds = %sdslen.exit
  %sext = shl i64 %.0.i, 32
  %45 = ashr exact i64 %sext, 32
  br label %.outer.split

.outer.split:                                     ; preds = %.outer.split.preheader, %.outer
  %46 = phi i64 [ %62, %.outer ], [ %45, %.outer.split.preheader ]
  %.0.ph43 = phi ptr [ %61, %.outer ], [ %0, %.outer.split.preheader ]
  %.031.ph42 = phi i32 [ %60, %.outer ], [ %44, %.outer.split.preheader ]
  br label %47

47:                                               ; preds = %.outer.split, %50
  %48 = tail call i64 @write(i32 noundef %12, ptr noundef %.0.ph43, i64 noundef %46) #20
  %49 = icmp slt i64 %48, 0
  br i1 %49, label %50, label %.outer

50:                                               ; preds = %47
  %51 = tail call ptr @__errno_location() #22
  %52 = load i32, ptr %51, align 4, !tbaa !21
  %53 = icmp eq i32 %52, 4
  br i1 %53, label %47, label %54, !llvm.loop !77

54:                                               ; preds = %50
  %55 = load i32, ptr getelementptr inbounds nuw (i8, ptr @server, i64 6288), align 8, !tbaa !65
  %56 = icmp sgt i32 %55, 3
  br i1 %56, label %91, label %57

57:                                               ; preds = %54
  %58 = tail call ptr @strerror(i32 noundef %52) #20
  tail call void (i32, ptr, ...) @_serverLog(i32 noundef 3, ptr noundef nonnull @.str.44, ptr noundef %9, ptr noundef %58) #20
  br label %91

.outer:                                           ; preds = %47
  %59 = trunc i64 %48 to i32
  %60 = sub i32 %.031.ph42, %59
  %61 = getelementptr inbounds nuw i8, ptr %.0.ph43, i64 %48
  %.not = icmp eq i32 %60, 0
  %62 = sext i32 %60 to i64
  br i1 %.not, label %.outer._crit_edge, label %.outer.split, !llvm.loop !77

.outer._crit_edge:                                ; preds = %.outer, %21, %sdslen.exit
  %63 = tail call i32 @fdatasync(i32 noundef %12) #20
  %64 = icmp eq i32 %63, -1
  br i1 %64, label %65, label %72

65:                                               ; preds = %.outer._crit_edge
  %66 = load i32, ptr getelementptr inbounds nuw (i8, ptr @server, i64 6288), align 8, !tbaa !65
  %67 = icmp sgt i32 %66, 3
  br i1 %67, label %91, label %68

68:                                               ; preds = %65
  %69 = tail call ptr @__errno_location() #22
  %70 = load i32, ptr %69, align 4, !tbaa !21
  %71 = tail call ptr @strerror(i32 noundef %70) #20
  tail call void (i32, ptr, ...) @_serverLog(i32 noundef 3, ptr noundef nonnull @.str.45, ptr noundef %9, ptr noundef %71) #20
  br label %91

72:                                               ; preds = %.outer._crit_edge
  %73 = tail call i32 @rename(ptr noundef %11, ptr noundef %6) #20
  %.not35 = icmp eq i32 %73, 0
  br i1 %.not35, label %81, label %74

74:                                               ; preds = %72
  %75 = load i32, ptr getelementptr inbounds nuw (i8, ptr @server, i64 6288), align 8, !tbaa !65
  %76 = icmp sgt i32 %75, 3
  br i1 %76, label %91, label %77

77:                                               ; preds = %74
  %78 = tail call ptr @__errno_location() #22
  %79 = load i32, ptr %78, align 4, !tbaa !21
  %80 = tail call ptr @strerror(i32 noundef %79) #20
  tail call void (i32, ptr, ...) @_serverLog(i32 noundef 3, ptr noundef nonnull @.str.46, ptr noundef %9, ptr noundef %4, ptr noundef %80) #20
  br label %91

81:                                               ; preds = %72
  %82 = tail call i32 @fsyncFileDir(ptr noundef %6) #20
  %83 = icmp eq i32 %82, -1
  br i1 %83, label %84, label %91

84:                                               ; preds = %81
  %85 = load i32, ptr getelementptr inbounds nuw (i8, ptr @server, i64 6288), align 8, !tbaa !65
  %86 = icmp sgt i32 %85, 3
  br i1 %86, label %91, label %87

87:                                               ; preds = %84
  %88 = tail call ptr @__errno_location() #22
  %89 = load i32, ptr %88, align 4, !tbaa !21
  %90 = tail call ptr @strerror(i32 noundef %89) #20
  tail call void (i32, ptr, ...) @_serverLog(i32 noundef 3, ptr noundef nonnull @.str.47, ptr noundef %6, ptr noundef %90) #20
  br label %91

91:                                               ; preds = %81, %54, %57, %65, %68, %74, %77, %84, %87
  %.030 = phi i32 [ 0, %81 ], [ -1, %54 ], [ -1, %57 ], [ -1, %65 ], [ -1, %68 ], [ -1, %74 ], [ -1, %77 ], [ -1, %84 ], [ -1, %87 ]
  %92 = tail call i32 @close(i32 noundef %12) #20
  br label %.thread

.thread:                                          ; preds = %14, %17, %91
  %.03038 = phi i32 [ %.030, %91 ], [ -1, %17 ], [ -1, %14 ]
  tail call void @sdsfree(ptr noundef %4) #20
  tail call void @sdsfree(ptr noundef %6) #20
  tail call void @sdsfree(ptr noundef %9) #20
  tail call void @sdsfree(ptr noundef %11) #20
  ret i32 %.03038
}